; Function Attrs: mustprogress uwtable
define dso_local void @_Z15luaL_addlstringP11luaL_StrbufPKcm(ptr noundef %0, ptr nocapture noundef readonly %1, i64 noundef %2) local_unnamed_addr #2 {
  %4 = getelementptr inbounds i8, ptr %0, i64 8
  %5 = load ptr, ptr %4, align 8
  %6 = load ptr, ptr %0, align 8
  %7 = ptrtoint ptr %5 to i64
  %8 = ptrtoint ptr %6 to i64
  %9 = sub i64 %7, %8
  %10 = icmp ult i64 %9, %2
  br i1 %10, label %11, label %44

11:                                               ; preds = %3
  %12 = sub i64 %2, %9
  %13 = getelementptr inbounds i8, ptr %0, i64 16
  %14 = load ptr, ptr %13, align 8
  %15 = getelementptr inbounds i8, ptr %0, i64 24
  %16 = load ptr, ptr %15, align 8
  %.not.i = icmp eq ptr %16, null
  %17 = getelementptr inbounds i8, ptr %16, i64 24
  %18 = getelementptr inbounds i8, ptr %0, i64 32
  %19 = select i1 %.not.i, ptr %18, ptr %17
  %20 = ptrtoint ptr %19 to i64
  %21 = sub i64 %7, %20
  %22 = add i64 %21, %12
  %23 = xor i64 %22, -1
  %24 = icmp ugt i64 %21, %23
  br i1 %24, label %25, label %_ZL17getnextbuffersizeP9lua_Statemm.exit.i

25:                                               ; preds = %11
  tail call void (ptr, ptr, ...) @_Z11luaL_errorLP9lua_StatePKcz(ptr noundef %14, ptr noundef nonnull @.str.22) #11
  unreachable

_ZL17getnextbuffersizeP9lua_Statemm.exit.i:       ; preds = %11
  %26 = lshr i64 %21, 1
  %27 = add i64 %26, %21
  %spec.select.i.i = tail call noundef i64 @llvm.umax.i64(i64 %27, i64 %22)
  %28 = tail call noundef ptr @_Z13luaS_bufstartP9lua_Statem(ptr noundef %14, i64 noundef %spec.select.i.i)
  %29 = getelementptr inbounds i8, ptr %28, i64 24
  %30 = load ptr, ptr %0, align 8
  %31 = ptrtoint ptr %30 to i64
  %32 = sub i64 %31, %20
  tail call void @llvm.memcpy.p0.p0.i64(ptr nonnull align 8 %29, ptr nonnull align 1 %19, i64 %32, i1 false)
  %33 = icmp eq ptr %19, %18
  br i1 %33, label %34, label %_ZL12extendstrbufP11luaL_Strbufmi.exit

34:                                               ; preds = %_ZL17getnextbuffersizeP9lua_Statemm.exit.i
  tail call void @_Z11lua_pushnilP9lua_State(ptr noundef %14)
  tail call void @_Z10lua_insertP9lua_Statei(ptr noundef %14, i32 noundef -1)
  br label %_ZL12extendstrbufP11luaL_Strbufmi.exit

_ZL12extendstrbufP11luaL_Strbufmi.exit:           ; preds = %_ZL17getnextbuffersizeP9lua_Statemm.exit.i, %34
  %35 = getelementptr inbounds i8, ptr %14, i64 8
  %36 = load ptr, ptr %35, align 8
  %37 = getelementptr inbounds i8, ptr %36, i64 -16
  store ptr %28, ptr %37, align 8
  %38 = getelementptr inbounds i8, ptr %36, i64 -4
  store i32 5, ptr %38, align 4
  %39 = load ptr, ptr %0, align 8
  %40 = ptrtoint ptr %39 to i64
  %41 = sub i64 %40, %20
  %42 = getelementptr inbounds i8, ptr %29, i64 %41
  store ptr %42, ptr %0, align 8
  %43 = getelementptr inbounds i8, ptr %29, i64 %spec.select.i.i
  store ptr %43, ptr %4, align 8
  store ptr %28, ptr %15, align 8
  br label %44

44:                                               ; preds = %_ZL12extendstrbufP11luaL_Strbufmi.exit, %3
  %45 = phi ptr [ %42, %_ZL12extendstrbufP11luaL_Strbufmi.exit ], [ %6, %3 ]
  tail call void @llvm.memcpy.p0.p0.i64(ptr align 1 %45, ptr align 1 %1, i64 %2, i1 false)
  %46 = load ptr, ptr %0, align 8
  %47 = getelementptr inbounds i8, ptr %46, i64 %2
  store ptr %47, ptr %0, align 8
  ret void
}